target datalayout = "e-m:e-p270:32:32-p271:32:32-p272:64:64-i64:64-i128:128-f80:128-n8:16:32:64-S128"
target triple = "x86_64-pc-linux-gnu"

; Function Attrs: inlinehint nounwind sspstrong willreturn memory(none) uwtable
define internal i64 @RB_INT2FIX(i64 noundef %0) #8 {
  %2 = alloca i64, align 8
  %3 = alloca i64, align 8
  %4 = alloca i64, align 8
  %5 = alloca i64, align 8
  %6 = alloca i64, align 8
  %7 = alloca i64, align 8
  store i64 %0, ptr %2, align 8, !tbaa !7
  call void @llvm.lifetime.start.p0(i64 8, ptr %3) #21
  %8 = load i64, ptr %2, align 8, !tbaa !7
  store i64 %8, ptr %3, align 8, !tbaa !7
  call void @llvm.lifetime.start.p0(i64 8, ptr %4) #21
  %9 = load i64, ptr %3, align 8, !tbaa !7
  %10 = shl i64 %9, 1
  %11 = add i64 %10, 1
  store i64 %11, ptr %4, align 8, !tbaa !7
  call void @llvm.lifetime.start.p0(i64 8, ptr %5) #21
  %12 = load i64, ptr %4, align 8, !tbaa !7
  store i64 %12, ptr %5, align 8, !tbaa !7
  call void @llvm.lifetime.start.p0(i64 8, ptr %6) #21
  %13 = load i64, ptr %5, align 8, !tbaa !7
  store i64 %13, ptr %6, align 8, !tbaa !7
  call void @llvm.lifetime.start.p0(i64 8, ptr %7) #21
  %14 = load i64, ptr %6, align 8, !tbaa !7
  store i64 %14, ptr %7, align 8, !tbaa !7
  %15 = load i64, ptr %7, align 8, !tbaa !7
  call void @llvm.lifetime.end.p0(i64 8, ptr %7) #21
  call void @llvm.lifetime.end.p0(i64 8, ptr %6) #21
  call void @llvm.lifetime.end.p0(i64 8, ptr %5) #21
  call void @llvm.lifetime.end.p0(i64 8, ptr %4) #21
  call void @llvm.lifetime.end.p0(i64 8, ptr %3) #21
  ret i64 %15
}

; Function Attrs: inlinehint nounwind sspstrong uwtable
define internal i64 @rb_long2num_inline(i64 noundef %0) #3 {
  %2 = alloca i64, align 8
  %3 = alloca i64, align 8
  store i64 %0, ptr %3, align 8, !tbaa !7
  %4 = load i64, ptr %3, align 8, !tbaa !7
  %5 = icmp slt i64 %4, 4611686018427387904
  br i1 %5, label %6, label %12

6:                                                ; preds = %1
  %7 = load i64, ptr %3, align 8, !tbaa !7
  %8 = icmp sge i64 %7, -4611686018427387904
  br i1 %8, label %9, label %12

9:                                                ; preds = %6
  %10 = load i64, ptr %3, align 8, !tbaa !7
  %11 = call i64 @RB_INT2FIX(i64 noundef %10) #23
  store i64 %11, ptr %2, align 8
  br label %15

12:                                               ; preds = %6, %1
  %13 = load i64, ptr %3, align 8, !tbaa !7
  %14 = call i64 @rb_int2big(i64 noundef %13)
  store i64 %14, ptr %2, align 8
  br label %15

15:                                               ; preds = %12, %9
  %16 = load i64, ptr %2, align 8
  ret i64 %16
}

; Function Attrs: inlinehint nounwind sspstrong uwtable
define internal i64 @f_imul(i64 noundef %0, i64 noundef %1) #3 {
  %3 = alloca i64, align 8
  %4 = alloca i64, align 8
  %5 = alloca i64, align 8
  %6 = alloca i64, align 8
  %7 = alloca i32, align 4
  %8 = alloca i64, align 8
  %9 = alloca i8, align 1
  store i64 %0, ptr %4, align 8, !tbaa !7
  store i64 %1, ptr %5, align 8, !tbaa !7
  call void @llvm.lifetime.start.p0(i64 8, ptr %6) #21
  %10 = load i64, ptr %4, align 8, !tbaa !7
  %11 = icmp eq i64 %10, 0
  br i1 %11, label %15, label %12

12:                                               ; preds = %2
  %13 = load i64, ptr %5, align 8, !tbaa !7
  %14 = icmp eq i64 %13, 0
  br i1 %14, label %15, label %16

15:                                               ; preds = %12, %2
  store i64 1, ptr %3, align 8
  store i32 1, ptr %7, align 4
  br label %52

16:                                               ; preds = %12
  %17 = load i64, ptr %4, align 8, !tbaa !7
  %18 = icmp eq i64 %17, 1
  br i1 %18, label %19, label %22

19:                                               ; preds = %16
  %20 = load i64, ptr %5, align 8, !tbaa !7
  %21 = call i64 @rb_long2num_inline(i64 noundef %20)
  store i64 %21, ptr %3, align 8
  store i32 1, ptr %7, align 4
  br label %52

22:                                               ; preds = %16
  %23 = load i64, ptr %5, align 8, !tbaa !7
  %24 = icmp eq i64 %23, 1
  br i1 %24, label %25, label %28

25:                                               ; preds = %22
  %26 = load i64, ptr %4, align 8, !tbaa !7
  %27 = call i64 @rb_long2num_inline(i64 noundef %26)
  store i64 %27, ptr %3, align 8
  store i32 1, ptr %7, align 4
  br label %52

28:                                               ; preds = %22
  br label %29

29:                                               ; preds = %28
  br label %30

30:                                               ; preds = %29
  call void @llvm.lifetime.start.p0(i64 8, ptr %8) #21
  %31 = load i64, ptr %4, align 8, !tbaa !7
  %32 = load i64, ptr %5, align 8, !tbaa !7
  %33 = call { i64, i1 } @llvm.smul.with.overflow.i64(i64 %31, i64 %32)
  %34 = extractvalue { i64, i1 } %33, 1
  %35 = extractvalue { i64, i1 } %33, 0
  store i64 %35, ptr %8, align 8
  %36 = zext i1 %34 to i8
  store i8 %36, ptr %9, align 1, !tbaa !24
  call void @llvm.lifetime.end.p0(i64 8, ptr %8) #21
  %37 = load i8, ptr %9, align 1, !tbaa !24, !range !26, !noundef !27
  %38 = trunc i8 %37 to i1
  br i1 %38, label %39, label %45

39:                                               ; preds = %30
  %40 = load i64, ptr %4, align 8, !tbaa !7
  %41 = call i64 @rb_int2big(i64 noundef %40)
  %42 = load i64, ptr %5, align 8, !tbaa !7
  %43 = call i64 @rb_int2big(i64 noundef %42)
  %44 = call i64 @rb_big_mul(i64 noundef %41, i64 noundef %43)
  store i64 %44, ptr %6, align 8, !tbaa !7
  br label %50

45:                                               ; preds = %30
  %46 = load i64, ptr %4, align 8, !tbaa !7
  %47 = load i64, ptr %5, align 8, !tbaa !7
  %48 = mul i64 %46, %47
  %49 = call i64 @rb_long2num_inline(i64 noundef %48)
  store i64 %49, ptr %6, align 8, !tbaa !7
  br label %50

50:                                               ; preds = %45, %39
  %51 = load i64, ptr %6, align 8, !tbaa !7
  store i64 %51, ptr %3, align 8
  store i32 1, ptr %7, align 4
  br label %52

52:                                               ; preds = %50, %25, %19, %15
  call void @llvm.lifetime.end.p0(i64 8, ptr %6) #21
  %53 = load i64, ptr %3, align 8
  ret i64 %53
}