; Function Attrs: inlinehint nounwind sspstrong uwtable
define internal fastcc i64 @f_imul(i64 noundef range(i64 -4611686018427387904, 4611686018427387905) %0, i64 noundef range(i64 -4611686018427387904, 4611686018427387905) %1) unnamed_addr #4 {
  %3 = icmp eq i64 %0, 0
  %4 = icmp eq i64 %1, 0
  %or.cond = or i1 %3, %4
  br i1 %or.cond, label %rb_long2num_inline.exit, label %5

5:                                                ; preds = %2
  %6 = icmp eq i64 %0, 1
  br i1 %6, label %7, label %14

7:                                                ; preds = %5
  %8 = add i64 %1, 4611686018427387904
  %or.cond.i = icmp sgt i64 %8, -1
  br i1 %or.cond.i, label %9, label %12

9:                                                ; preds = %7
  %10 = shl nsw i64 %1, 1
  %11 = or disjoint i64 %10, 1
  br label %rb_long2num_inline.exit

12:                                               ; preds = %7
  %13 = tail call i64 @rb_int2big(i64 noundef %1) #17
  br label %rb_long2num_inline.exit

14:                                               ; preds = %5
  %15 = icmp eq i64 %1, 1
  br i1 %15, label %16, label %23

16:                                               ; preds = %14
  %17 = add i64 %0, 4611686018427387904
  %or.cond.i19 = icmp sgt i64 %17, -1
  br i1 %or.cond.i19, label %18, label %21

18:                                               ; preds = %16
  %19 = shl nsw i64 %0, 1
  %20 = or disjoint i64 %19, 1
  br label %rb_long2num_inline.exit

21:                                               ; preds = %16
  %22 = tail call i64 @rb_int2big(i64 noundef %0) #17
  br label %rb_long2num_inline.exit

23:                                               ; preds = %14
  %24 = tail call { i64, i1 } @llvm.smul.with.overflow.i64(i64 %0, i64 %1)
  %25 = extractvalue { i64, i1 } %24, 1
  br i1 %25, label %26, label %30

26:                                               ; preds = %23
  %27 = tail call i64 @rb_int2big(i64 noundef %0) #17
  %28 = tail call i64 @rb_int2big(i64 noundef %1) #17
  %29 = tail call i64 @rb_big_mul(i64 noundef %27, i64 noundef %28) #17
  br label %rb_long2num_inline.exit

30:                                               ; preds = %23
  %31 = mul i64 %1, %0
  %32 = add i64 %31, 4611686018427387904
  %or.cond.i22 = icmp sgt i64 %32, -1
  br i1 %or.cond.i22, label %33, label %36

33:                                               ; preds = %30
  %34 = shl nsw i64 %31, 1
  %35 = or disjoint i64 %34, 1
  br label %rb_long2num_inline.exit

36:                                               ; preds = %30
  %37 = tail call i64 @rb_int2big(i64 noundef %31) #17
  br label %rb_long2num_inline.exit

rb_long2num_inline.exit:                          ; preds = %36, %33, %21, %18, %12, %9, %26, %2
  %.0 = phi i64 [ 1, %2 ], [ %29, %26 ], [ %11, %9 ], [ %13, %12 ], [ %20, %18 ], [ %22, %21 ], [ %35, %33 ], [ %37, %36 ]
  ret i64 %.0
}